; Function Attrs: nofree norecurse nosync nounwind memory(argmem: readwrite) uwtable
define internal i32 @lv_text_utf8_get_length(ptr nocapture noundef readonly %0) #4 {
  %2 = alloca i32, align 4
  call void @llvm.lifetime.start.p0(i64 4, ptr nonnull %2) #11
  store i32 0, ptr %2, align 4, !tbaa !6
  %3 = load i8, ptr %0, align 1, !tbaa !3
  %.not3 = icmp eq i8 %3, 0
  br i1 %.not3, label %._crit_edge, label %.lr.ph

.lr.ph:                                           ; preds = %1, %.lr.ph
  %.04 = phi i32 [ %5, %.lr.ph ], [ 0, %1 ]
  %4 = call i32 @lv_text_utf8_next(ptr noundef nonnull %0, ptr noundef nonnull %2)
  %5 = add i32 %.04, 1
  %6 = load i32, ptr %2, align 4, !tbaa !6
  %7 = zext i32 %6 to i64
  %8 = getelementptr inbounds nuw i8, ptr %0, i64 %7
  %9 = load i8, ptr %8, align 1, !tbaa !3
  %.not = icmp eq i8 %9, 0
  br i1 %.not, label %._crit_edge, label %.lr.ph, !llvm.loop !13

._crit_edge:                                      ; preds = %.lr.ph, %1
  %.0.lcssa = phi i32 [ 0, %1 ], [ %5, %.lr.ph ]
  call void @llvm.lifetime.end.p0(i64 4, ptr nonnull %2) #11
  ret i32 %.0.lcssa
}